; Function Attrs: nounwind uwtable
define internal fastcc void @dissect_session_update_controller_multicast_list_ntf(ptr noundef %0, ptr %.8.val, ptr noundef %1) unnamed_addr #0 {
  tail call void (ptr, i32, ptr, ...) @col_add_fstr(ptr noundef %.8.val, i32 noundef 25, ptr noundef nonnull @.str.310) #2
  %3 = load i32, ptr @hf_uci_session_id, align 4
  %4 = tail call ptr @proto_tree_add_item(ptr noundef %1, i32 noundef %3, ptr noundef %0, i32 noundef 4, i32 noundef 4, i32 noundef -2147483648) #2
  %5 = load i32, ptr @hf_uci_remaining_multicast_list_size, align 4
  %6 = tail call ptr @proto_tree_add_item(ptr noundef %1, i32 noundef %5, ptr noundef %0, i32 noundef 8, i32 noundef 1, i32 noundef 0) #2
  %7 = tail call zeroext i8 @tvb_get_guint8(ptr noundef %0, i32 noundef 9) #2
  %8 = zext i8 %7 to i32
  %9 = load i32, ptr @hf_uci_controlees_count, align 4
  %10 = tail call ptr @proto_tree_add_item(ptr noundef %1, i32 noundef %9, ptr noundef %0, i32 noundef 9, i32 noundef 1, i32 noundef 0) #2
  %11 = icmp eq i8 %7, 0
  br i1 %11, label %.loopexit, label %12

12:                                               ; preds = %2
  %13 = load i32, ptr @ett_uci_controlee_list, align 4
  %14 = tail call ptr @proto_tree_add_subtree(ptr noundef %1, ptr noundef %0, i32 noundef 10, i32 noundef -1, i32 noundef %13, ptr noundef null, ptr noundef nonnull @.str.307) #2
  br label %15

15:                                               ; preds = %12, %15
  %.02 = phi i32 [ 10, %12 ], [ %26, %15 ]
  %.0361 = phi i32 [ 0, %12 ], [ %27, %15 ]
  %16 = load i32, ptr @ett_uci_controlee, align 4
  %17 = tail call ptr @proto_tree_add_subtree(ptr noundef %14, ptr noundef %0, i32 noundef %.02, i32 noundef -1, i32 noundef %16, ptr noundef null, ptr noundef nonnull @.str.308) #2
  %18 = load i32, ptr @hf_uci_controlee_short_address, align 4
  %19 = tail call ptr @proto_tree_add_item(ptr noundef %17, i32 noundef %18, ptr noundef %0, i32 noundef %.02, i32 noundef 2, i32 noundef -2147483648) #2
  %20 = add nuw nsw i32 %.02, 2
  %21 = load i32, ptr @hf_uci_controlee_subsession_id, align 4
  %22 = tail call ptr @proto_tree_add_item(ptr noundef %17, i32 noundef %21, ptr noundef %0, i32 noundef %20, i32 noundef 4, i32 noundef -2147483648) #2
  %23 = add nuw nsw i32 %.02, 6
  %24 = load i32, ptr @hf_uci_controlee_status, align 4
  %25 = tail call ptr @proto_tree_add_item(ptr noundef %17, i32 noundef %24, ptr noundef %0, i32 noundef %23, i32 noundef 1, i32 noundef 0) #2
  %26 = add nuw nsw i32 %.02, 7
  %27 = add nuw nsw i32 %.0361, 1
  %exitcond.not = icmp eq i32 %27, %8
  br i1 %exitcond.not, label %.loopexit, label %15, !llvm.loop !13

.loopexit:                                        ; preds = %15, %2
  ret void
}